; ModuleID = '13/1147.c'
source_filename = "13/1147.c"
target datalayout = "e-m:e-p270:32:32-p271:32:32-p272:64:64-i64:64-f80:128-n8:16:32:64-S128"
target triple = "x86_64-pc-linux-gnu"

@first = dso_local global i32 0, align 4
@i = common dso_local global i32 0, align 4
@stat = common dso_local global [115 x i32] zeroinitializer, align 16
@.str = private unnamed_addr constant [3 x i8] c"%d\00", align 1
@n = common dso_local global i32 0, align 4
@k = common dso_local global i32 0, align 4
@.str.1 = private unnamed_addr constant [5 x i8] c"%s%d\00", align 1
@.str.2 = private unnamed_addr constant [1 x i8] zeroinitializer, align 1
@.str.3 = private unnamed_addr constant [2 x i8] c" \00", align 1
@.str.4 = private unnamed_addr constant [2 x i8] c"\0A\00", align 1

; Function Attrs: noinline nounwind uwtable
define dso_local i32 @main() #0 {
  %1 = alloca i32, align 4
  store i32 0, i32* %1, align 4
  store i32 0, i32* @i, align 4
  br label %2

2:                                                ; preds = %9, %0
  %3 = load i32, i32* @i, align 4
  %4 = icmp slt i32 %3, 110
  br i1 %4, label %5, label %12

5:                                                ; preds = %2
  %6 = load i32, i32* @i, align 4
  %7 = sext i32 %6 to i64
  %8 = getelementptr inbounds [115 x i32], [115 x i32]* @stat, i64 0, i64 %7
  store i32 0, i32* %8, align 4
  br label %9

9:                                                ; preds = %5
  %10 = load i32, i32* @i, align 4
  %11 = add nsw i32 %10, 1
  store i32 %11, i32* @i, align 4
  br label %2

12:                                               ; preds = %2
  %13 = call i32 (i8*, ...) @__isoc99_scanf(i8* getelementptr inbounds ([3 x i8], [3 x i8]* @.str, i64 0, i64 0), i32* @n)
  store i32 0, i32* @i, align 4
  br label %14

14:                                               ; preds = %38, %12
  %15 = load i32, i32* @i, align 4
  %16 = load i32, i32* @n, align 4
  %17 = icmp slt i32 %15, %16
  br i1 %17, label %18, label %41

18:                                               ; preds = %14
  %19 = call i32 (i8*, ...) @__isoc99_scanf(i8* getelementptr inbounds ([3 x i8], [3 x i8]* @.str, i64 0, i64 0), i32* @k)
  %20 = load i32, i32* @k, align 4
  %21 = sext i32 %20 to i64
  %22 = getelementptr inbounds [115 x i32], [115 x i32]* @stat, i64 0, i64 %21
  %23 = load i32, i32* %22, align 4
  %24 = add nsw i32 %23, 1
  store i32 %24, i32* %22, align 4
  %25 = load i32, i32* @k, align 4
  %26 = sext i32 %25 to i64
  %27 = getelementptr inbounds [115 x i32], [115 x i32]* @stat, i64 0, i64 %26
  %28 = load i32, i32* %27, align 4
  %29 = icmp eq i32 %28, 1
  %30 = zext i1 %29 to i64
  %31 = select i1 %29, i8* getelementptr inbounds ([5 x i8], [5 x i8]* @.str.1, i64 0, i64 0), i8* getelementptr inbounds ([1 x i8], [1 x i8]* @.str.2, i64 0, i64 0)
  %32 = load i32, i32* @i, align 4
  %33 = icmp ne i32 %32, 0
  %34 = zext i1 %33 to i64
  %35 = select i1 %33, i8* getelementptr inbounds ([2 x i8], [2 x i8]* @.str.3, i64 0, i64 0), i8* getelementptr inbounds ([1 x i8], [1 x i8]* @.str.2, i64 0, i64 0)
  %36 = load i32, i32* @k, align 4
  %37 = call i32 (i8*, ...) @printf(i8* %31, i8* %35, i32 %36)
  br label %38

38:                                               ; preds = %18
  %39 = load i32, i32* @i, align 4
  %40 = add nsw i32 %39, 1
  store i32 %40, i32* @i, align 4
  br label %14

41:                                               ; preds = %14
  %42 = call i32 (i8*, ...) @printf(i8* getelementptr inbounds ([2 x i8], [2 x i8]* @.str.4, i64 0, i64 0))
  ret i32 0
}

declare dso_local i32 @__isoc99_scanf(i8*, ...) #1

declare dso_local i32 @printf(i8*, ...) #1


!llvm.module.flags = !{!0}
!llvm.ident = !{!1}

!0 = !{i32 1, !"wchar_size", i32 4}
!1 = !{!"clang version 10.0.0-4ubuntu1 "}
