; ModuleID = 'source-C-CXX/12/1147.c'
source_filename = "source-C-CXX/12/1147.c"
target datalayout = "e-m:e-p270:32:32-p271:32:32-p272:64:64-i64:64-f80:128-n8:16:32:64-S128"
target triple = "x86_64-pc-linux-gnu"

@first = dso_local local_unnamed_addr global i32 0, align 4
@i = dso_local local_unnamed_addr global i32 0, align 4
@stat = dso_local local_unnamed_addr global [115 x i32] zeroinitializer, align 16
@.str = private unnamed_addr constant [3 x i8] c"%d\00", align 1
@n = dso_local global i32 0, align 4
@k = dso_local global i32 0, align 4
@.str.1 = private unnamed_addr constant [5 x i8] c"%s%d\00", align 1
@.str.2 = private unnamed_addr constant [1 x i8] zeroinitializer, align 1
@.str.3 = private unnamed_addr constant [2 x i8] c" \00", align 1

; Function Attrs: nofree nounwind sspstrong uwtable
define dso_local i32 @main() local_unnamed_addr #0 {
  call void @llvm.memset.p0i8.i64(i8* noundef nonnull align 16 dereferenceable(440) bitcast ([115 x i32]* @stat to i8*), i8 0, i64 440, i1 false)
  store i32 110, i32* @i, align 4, !tbaa !5
  %1 = tail call i32 (i8*, ...) @__isoc99_scanf(i8* getelementptr inbounds ([3 x i8], [3 x i8]* @.str, i64 0, i64 0), i32* nonnull @n)
  store i32 0, i32* @i, align 4, !tbaa !5
  %2 = load i32, i32* @n, align 4, !tbaa !5
  %3 = icmp sgt i32 %2, 0
  br i1 %3, label %4, label %21

4:                                                ; preds = %0, %4
  %5 = tail call i32 (i8*, ...) @__isoc99_scanf(i8* getelementptr inbounds ([3 x i8], [3 x i8]* @.str, i64 0, i64 0), i32* nonnull @k)
  %6 = load i32, i32* @k, align 4, !tbaa !5
  %7 = sext i32 %6 to i64
  %8 = getelementptr inbounds [115 x i32], [115 x i32]* @stat, i64 0, i64 %7
  %9 = load i32, i32* %8, align 4, !tbaa !5
  %10 = add nsw i32 %9, 1
  store i32 %10, i32* %8, align 4, !tbaa !5
  %11 = icmp eq i32 %9, 0
  %12 = select i1 %11, i8* getelementptr inbounds ([5 x i8], [5 x i8]* @.str.1, i64 0, i64 0), i8* getelementptr inbounds ([1 x i8], [1 x i8]* @.str.2, i64 0, i64 0)
  %13 = load i32, i32* @i, align 4, !tbaa !5
  %14 = icmp eq i32 %13, 0
  %15 = select i1 %14, i8* getelementptr inbounds ([1 x i8], [1 x i8]* @.str.2, i64 0, i64 0), i8* getelementptr inbounds ([2 x i8], [2 x i8]* @.str.3, i64 0, i64 0)
  %16 = tail call i32 (i8*, ...) @printf(i8* nonnull dereferenceable(1) %12, i8* %15, i32 %6)
  %17 = load i32, i32* @i, align 4, !tbaa !5
  %18 = add nsw i32 %17, 1
  store i32 %18, i32* @i, align 4, !tbaa !5
  %19 = load i32, i32* @n, align 4, !tbaa !5
  %20 = icmp slt i32 %18, %19
  br i1 %20, label %4, label %21, !llvm.loop !9

21:                                               ; preds = %4, %0
  %22 = tail call i32 @putchar(i32 10)
  ret i32 0
}

; Function Attrs: nofree nounwind
declare noundef i32 @__isoc99_scanf(i8* nocapture noundef readonly, ...) local_unnamed_addr #1

; Function Attrs: nofree nounwind
declare noundef i32 @printf(i8* nocapture noundef readonly, ...) local_unnamed_addr #1

; Function Attrs: nofree nounwind
declare noundef i32 @putchar(i32 noundef) local_unnamed_addr #2

; Function Attrs: argmemonly nofree nounwind willreturn writeonly
declare void @llvm.memset.p0i8.i64(i8* nocapture writeonly, i8, i64, i1 immarg) #3


!llvm.module.flags = !{!0, !1, !2, !3}
!llvm.ident = !{!4}

!0 = !{i32 1, !"wchar_size", i32 4}
!1 = !{i32 7, !"PIC Level", i32 2}
!2 = !{i32 7, !"PIE Level", i32 2}
!3 = !{i32 7, !"uwtable", i32 1}
!4 = !{!"clang version 13.0.0"}
!5 = !{!6, !6, i64 0}
!6 = !{!"int", !7, i64 0}
!7 = !{!"omnipotent char", !8, i64 0}
!8 = !{!"Simple C/C++ TBAA"}
!9 = distinct !{!9, !10}
!10 = !{!"llvm.loop.mustprogress"}
